target datalayout = "e-m:e-p270:32:32-p271:32:32-p272:64:64-i64:64-i128:128-f80:128-n8:16:32:64-S128"
target triple = "x86_64-pc-linux-gnu"

%struct.AVFrame = type { [8 x ptr], [8 x i32], ptr, i32, i32, i32, i32, i32, %struct.AVRational, i64, i64, %struct.AVRational, i32, ptr, i32, i32, [8 x ptr], ptr, i32, ptr, i32, i32, i32, i32, i32, i32, i32, i64, ptr, i32, ptr, ptr, i64, i64, i64, i64, ptr, %struct.AVChannelLayout, i64 }
%struct.AVRational = type { i32, i32 }
%struct.AVChannelLayout = type { i32, i32, %union.anon.0, ptr }
%union.anon.0 = type { i64 }
%struct.AVFilmGrainAFGS1Params = type { i32, [8 x ptr] }

; Function Attrs: nounwind uwtable
define i32 @ff_aom_attach_film_grain_sets(ptr noundef %0, ptr noundef %1) #0 {
  %3 = alloca i32, align 4
  %4 = alloca ptr, align 8
  %5 = alloca ptr, align 8
  %6 = alloca i32, align 4
  %7 = alloca i32, align 4
  store ptr %0, ptr %4, align 8, !tbaa !47
  store ptr %1, ptr %5, align 8, !tbaa !4
  %8 = load ptr, ptr %4, align 8, !tbaa !47
  %9 = getelementptr inbounds nuw %struct.AVFilmGrainAFGS1Params, ptr %8, i32 0, i32 0
  %10 = load i32, ptr %9, align 8, !tbaa !51
  %11 = icmp ne i32 %10, 0
  br i1 %11, label %13, label %12

12:                                               ; preds = %2
  store i32 0, ptr %3, align 4
  br label %48

13:                                               ; preds = %2
  call void @llvm.lifetime.start.p0(i64 4, ptr %6) #9
  store i32 0, ptr %6, align 4, !tbaa !30
  br label %14

14:                                               ; preds = %42, %13
  %15 = load i32, ptr %6, align 4, !tbaa !30
  %16 = sext i32 %15 to i64
  %17 = icmp ult i64 %16, 8
  br i1 %17, label %19, label %18

18:                                               ; preds = %14
  store i32 2, ptr %7, align 4
  br label %45

19:                                               ; preds = %14
  %20 = load ptr, ptr %4, align 8, !tbaa !47
  %21 = getelementptr inbounds nuw %struct.AVFilmGrainAFGS1Params, ptr %20, i32 0, i32 1
  %22 = load i32, ptr %6, align 4, !tbaa !30
  %23 = sext i32 %22 to i64
  %24 = getelementptr inbounds [8 x ptr], ptr %21, i64 0, i64 %23
  %25 = load ptr, ptr %24, align 8, !tbaa !83
  %26 = icmp ne ptr %25, null
  br i1 %26, label %28, label %27

27:                                               ; preds = %19
  br label %42

28:                                               ; preds = %19
  %29 = load ptr, ptr %5, align 8, !tbaa !4
  %30 = getelementptr inbounds nuw %struct.AVFrame, ptr %29, i32 0, i32 19
  %31 = load ptr, ptr %5, align 8, !tbaa !4
  %32 = getelementptr inbounds nuw %struct.AVFrame, ptr %31, i32 0, i32 20
  %33 = load ptr, ptr %4, align 8, !tbaa !47
  %34 = getelementptr inbounds nuw %struct.AVFilmGrainAFGS1Params, ptr %33, i32 0, i32 1
  %35 = load i32, ptr %6, align 4, !tbaa !30
  %36 = sext i32 %35 to i64
  %37 = getelementptr inbounds [8 x ptr], ptr %34, i64 0, i64 %36
  %38 = call ptr @av_frame_side_data_add(ptr noundef %30, ptr noundef %32, i32 noundef 21, ptr noundef %37, i32 noundef 4)
  %39 = icmp ne ptr %38, null
  br i1 %39, label %41, label %40

40:                                               ; preds = %28
  store i32 -12, ptr %3, align 4
  store i32 1, ptr %7, align 4
  br label %45

41:                                               ; preds = %28
  br label %42

42:                                               ; preds = %41, %27
  %43 = load i32, ptr %6, align 4, !tbaa !30
  %44 = add nsw i32 %43, 1
  store i32 %44, ptr %6, align 4, !tbaa !30
  br label %14, !llvm.loop !90

45:                                               ; preds = %40, %18
  call void @llvm.lifetime.end.p0(i64 4, ptr %6) #9
  %46 = load i32, ptr %7, align 4
  switch i32 %46, label %50 [
    i32 2, label %47
    i32 1, label %48
  ]

47:                                               ; preds = %45
  store i32 0, ptr %3, align 4
  br label %48

48:                                               ; preds = %47, %45, %12
  %49 = load i32, ptr %3, align 4
  ret i32 %49

50:                                               ; preds = %45
  unreachable
}