; Function Attrs: nounwind uwtable
define range(i32 -12, 1) i32 @ff_aom_attach_film_grain_sets(ptr noundef %0, ptr noundef %1) local_unnamed_addr #0 {
  %3 = load i32, ptr %0, align 8, !tbaa !91
  %.not = icmp eq i32 %3, 0
  br i1 %.not, label %.loopexit, label %.preheader

.preheader:                                       ; preds = %2
  %4 = getelementptr inbounds nuw i8, ptr %1, i64 264
  %5 = getelementptr inbounds nuw i8, ptr %1, i64 272
  %6 = getelementptr inbounds nuw i8, ptr %0, i64 8
  br label %7

7:                                                ; preds = %.preheader, %12
  %indvars.iv = phi i64 [ 0, %.preheader ], [ %indvars.iv.next, %12 ]
  %8 = getelementptr inbounds nuw [8 x ptr], ptr %6, i64 0, i64 %indvars.iv
  %9 = load ptr, ptr %8, align 8, !tbaa !116
  %.not13 = icmp eq ptr %9, null
  br i1 %.not13, label %12, label %10

10:                                               ; preds = %7
  %11 = tail call ptr @av_frame_side_data_add(ptr noundef nonnull %4, ptr noundef nonnull %5, i32 noundef 21, ptr noundef nonnull %8, i32 noundef 4) #7
  %.not14 = icmp eq ptr %11, null
  br i1 %.not14, label %.loopexit, label %12

12:                                               ; preds = %10, %7
  %indvars.iv.next = add nuw nsw i64 %indvars.iv, 1
  %exitcond = icmp eq i64 %indvars.iv.next, 8
  br i1 %exitcond, label %.loopexit, label %7, !llvm.loop !119

.loopexit:                                        ; preds = %12, %10, %2
  %.011 = phi i32 [ 0, %2 ], [ -12, %10 ], [ 0, %12 ]
  ret i32 %.011
}